	.file	"main.c"
	.text
.Ltext0:
	.cfi_sections	.debug_frame
	.def	__main;	.scl	2;	.type	32;	.endef
	.section .rdata,"dr"
.LC33:
	.ascii "\15\12 %g   %g\0"
	.section	.text.unlikely,"x"
.LCOLDB34:
	.section	.text.startup,"x"
.LHOTB34:
	.p2align 4,,15
	.section	.text.unlikely,"x"
.Ltext_cold0:
	.section	.text.startup,"x"
	.globl	main
	.def	main;	.scl	2;	.type	32;	.endef
	.seh_proc	main
main:
.LFB7:
	.file 1 "main.c"
	.loc 1 45 0
	.cfi_startproc
.LVL0:
	pushq	%rbp
	.seh_pushreg	%rbp
	.cfi_def_cfa_offset 16
	.cfi_offset 6, -16
	pushq	%rdi
	.seh_pushreg	%rdi
	.cfi_def_cfa_offset 24
	.cfi_offset 5, -24
	pushq	%rsi
	.seh_pushreg	%rsi
	.cfi_def_cfa_offset 32
	.cfi_offset 4, -32
	pushq	%rbx
	.seh_pushreg	%rbx
	.cfi_def_cfa_offset 40
	.cfi_offset 3, -40
	subq	$280, %rsp
	.seh_stackalloc	280
	.cfi_def_cfa_offset 320
	movaps	%xmm6, 112(%rsp)
	.seh_savexmm	%xmm6, 112
	movaps	%xmm7, 128(%rsp)
	.seh_savexmm	%xmm7, 128
	movaps	%xmm8, 144(%rsp)
	.seh_savexmm	%xmm8, 144
	movaps	%xmm9, 160(%rsp)
	.seh_savexmm	%xmm9, 160
	movaps	%xmm10, 176(%rsp)
	.seh_savexmm	%xmm10, 176
	movaps	%xmm11, 192(%rsp)
	.seh_savexmm	%xmm11, 192
	movaps	%xmm12, 208(%rsp)
	.seh_savexmm	%xmm12, 208
	movaps	%xmm13, 224(%rsp)
	.seh_savexmm	%xmm13, 224
	movaps	%xmm14, 240(%rsp)
	.seh_savexmm	%xmm14, 240
	movaps	%xmm15, 256(%rsp)
	.seh_savexmm	%xmm15, 256
	.cfi_offset 23, -208
	.cfi_offset 24, -192
	.cfi_offset 25, -176
	.cfi_offset 26, -160
	.cfi_offset 27, -144
	.cfi_offset 28, -128
	.cfi_offset 29, -112
	.cfi_offset 30, -96
	.cfi_offset 31, -80
	.cfi_offset 32, -64
	.seh_endprologue
	.loc 1 47 0
	leaq	flexnav_inputs(%rip), %rdi
	.loc 1 51 0
	leaq	flexnav_outputs(%rip), %rbp
	.loc 1 54 0
	leaq	MFin(%rip), %rbx
	.loc 1 45 0
	call	__main
.LVL1:
	.loc 1 47 0
	pxor	%xmm2, %xmm2
	xorl	%edx, %edx
	movq	%rdi, %rcx
	movss	.LC0(%rip), %xmm3
	.loc 1 54 0
	pxor	%xmm6, %xmm6
	.loc 1 67 0
	leaq	MFout(%rip), %rsi
	.loc 1 47 0
	call	FuzzAddIO
.LVL2:
	.loc 1 48 0
	pxor	%xmm2, %xmm2
	movq	%rdi, %rcx
	movss	.LC2(%rip), %xmm3
	movl	$1, %edx
	call	FuzzAddIO
.LVL3:
	.loc 1 49 0
	pxor	%xmm2, %xmm2
	movq	%rdi, %rcx
	movss	.LC2(%rip), %xmm3
	movl	$2, %edx
	call	FuzzAddIO
.LVL4:
	.loc 1 50 0
	pxor	%xmm2, %xmm2
	movq	%rdi, %rcx
	movss	.LC3(%rip), %xmm3
	movl	$3, %edx
	call	FuzzAddIO
.LVL5:
	.loc 1 51 0
	pxor	%xmm2, %xmm2
	xorl	%edx, %edx
	movq	%rbp, %rcx
	movss	.LC4(%rip), %xmm3
	call	FuzzAddIO
.LVL6:
	.loc 1 52 0
	pxor	%xmm2, %xmm2
	movq	%rbp, %rcx
	movss	.LC4(%rip), %xmm3
	movl	$1, %edx
	call	FuzzAddIO
.LVL7:
	.loc 1 54 0
	movss	.LC5(%rip), %xmm8
	xorl	%r9d, %r9d
	movss	%xmm6, 56(%rsp)
	xorl	%r8d, %r8d
	xorl	%edx, %edx
	movss	%xmm8, 48(%rsp)
	movq	%rbx, %rcx
	movl	$0xbe4ccccd, 32(%rsp)
	movss	%xmm6, 40(%rsp)
	call	FuzzAddMF
.LVL8:
	.loc 1 55 0
	movss	.LC7(%rip), %xmm10
	xorl	%r9d, %r9d
	movss	%xmm6, 56(%rsp)
	xorl	%edx, %edx
	movq	%rbx, %rcx
	movss	%xmm10, 48(%rsp)
	movl	$0x3e800000, 40(%rsp)
	movl	$0x3dcccccd, 32(%rsp)
	movl	$1, %r8d
	call	FuzzAddMF
.LVL9:
	.loc 1 56 0
	movss	.LC0(%rip), %xmm9
	xorl	%r9d, %r9d
	movss	%xmm6, 56(%rsp)
	xorl	%edx, %edx
	movq	%rbx, %rcx
	movss	%xmm9, 40(%rsp)
	movl	$0x3f333333, 48(%rsp)
	movl	$0x3e99999a, 32(%rsp)
	movl	$2, %r8d
	call	FuzzAddMF
.LVL10:
	.loc 1 57 0
	movss	.LC12(%rip), %xmm15
	xorl	%r9d, %r9d
	movss	%xmm6, 56(%rsp)
	movq	%rbx, %rcx
	movl	$0xbf800000, 32(%rsp)
	movss	%xmm15, 48(%rsp)
	movl	$3, %r8d
	movl	$1, %edx
	movss	%xmm6, 40(%rsp)
	call	FuzzAddMF
.LVL11:
	.loc 1 58 0
	movss	.LC4(%rip), %xmm7
	xorl	%r9d, %r9d
	movss	.LC14(%rip), %xmm14
	movq	%rbx, %rcx
	movss	.LC15(%rip), %xmm13
	movl	$4, %r8d
	movss	%xmm6, 56(%rsp)
	movl	$1, %edx
	movss	%xmm14, 48(%rsp)
	movss	%xmm13, 40(%rsp)
	movss	%xmm7, 32(%rsp)
	call	FuzzAddMF
.LVL12:
	.loc 1 59 0
	movss	.LC2(%rip), %xmm11
	xorl	%r9d, %r9d
	movss	.LC16(%rip), %xmm12
	movq	%rbx, %rcx
	movss	%xmm6, 56(%rsp)
	movl	$0x40400000, 32(%rsp)
	movl	$5, %r8d
	movss	%xmm12, 48(%rsp)
	movl	$1, %edx
	movss	%xmm11, 40(%rsp)
	call	FuzzAddMF
.LVL13:
	.loc 1 60 0
	movss	%xmm6, 56(%rsp)
	xorl	%r9d, %r9d
	movq	%rbx, %rcx
	movss	%xmm15, 48(%rsp)
	movl	$0xc0000000, 32(%rsp)
	movl	$6, %r8d
	movss	%xmm6, 40(%rsp)
	movl	$2, %edx
	call	FuzzAddMF
.LVL14:
	.loc 1 61 0
	movss	%xmm6, 56(%rsp)
	xorl	%r9d, %r9d
	movq	%rbx, %rcx
	movss	%xmm14, 48(%rsp)
	movl	$7, %r8d
	movl	$2, %edx
	movss	%xmm13, 40(%rsp)
	movss	%xmm7, 32(%rsp)
	call	FuzzAddMF
.LVL15:
	.loc 1 62 0
	movss	%xmm6, 56(%rsp)
	xorl	%r9d, %r9d
	movq	%rbx, %rcx
	movss	%xmm12, 48(%rsp)
	movl	$0x40400000, 32(%rsp)
	movl	$8, %r8d
	movss	%xmm11, 40(%rsp)
	movl	$2, %edx
	call	FuzzAddMF
.LVL16:
	.loc 1 63 0
	movss	%xmm6, 56(%rsp)
	movq	%rbx, %rcx
	movl	$0x41000000, 48(%rsp)
	movss	%xmm6, 40(%rsp)
	movl	$0xc1000000, 32(%rsp)
	xorl	%r9d, %r9d
	movl	$9, %r8d
	movl	$3, %edx
	call	FuzzAddMF
.LVL17:
	.loc 1 64 0
	movss	%xmm6, 56(%rsp)
	xorl	%r9d, %r9d
	movq	%rbx, %rcx
	movss	%xmm11, 32(%rsp)
	movl	$0x41700000, 48(%rsp)
	movl	$0x41200000, 40(%rsp)
	movl	$10, %r8d
	movl	$3, %edx
	call	FuzzAddMF
.LVL18:
	.loc 1 65 0
	movss	%xmm6, 56(%rsp)
	xorl	%r9d, %r9d
	movq	%rbx, %rcx
	movl	$0x41e00000, 48(%rsp)
	movl	$0x41a00000, 40(%rsp)
	movl	$11, %r8d
	movl	$0x41400000, 32(%rsp)
	movl	$3, %edx
	call	FuzzAddMF
.LVL19:
	.loc 1 67 0
	movss	.LC25(%rip), %xmm14
	xorl	%r9d, %r9d
	movss	%xmm6, 56(%rsp)
	xorl	%r8d, %r8d
	xorl	%edx, %edx
	movss	%xmm10, 48(%rsp)
	movq	%rsi, %rcx
	movss	%xmm6, 40(%rsp)
	movss	%xmm14, 32(%rsp)
	call	FuzzAddMF
.LVL20:
	.loc 1 68 0
	movss	.LC26(%rip), %xmm13
	xorl	%r9d, %r9d
	movss	%xmm6, 56(%rsp)
	xorl	%edx, %edx
	movq	%rsi, %rcx
	movss	%xmm13, 48(%rsp)
	movl	$1, %r8d
	movss	%xmm9, 40(%rsp)
	movss	%xmm8, 32(%rsp)
	call	FuzzAddMF
.LVL21:
	.loc 1 69 0
	movss	.LC27(%rip), %xmm12
	xorl	%r9d, %r9d
	movss	.LC28(%rip), %xmm11
	xorl	%edx, %edx
	movss	%xmm6, 56(%rsp)
	movq	%rsi, %rcx
	movl	$2, %r8d
	movss	%xmm12, 48(%rsp)
	movss	%xmm7, 40(%rsp)
	movss	%xmm11, 32(%rsp)
	call	FuzzAddMF
.LVL22:
	.loc 1 70 0
	movss	%xmm6, 56(%rsp)
	xorl	%r9d, %r9d
	movq	%rsi, %rcx
	movss	%xmm10, 48(%rsp)
	movl	$3, %r8d
	movl	$1, %edx
	movss	%xmm6, 40(%rsp)
	movss	%xmm14, 32(%rsp)
	call	FuzzAddMF
.LVL23:
	.loc 1 71 0
	movss	%xmm6, 56(%rsp)
	xorl	%r9d, %r9d
	movq	%rsi, %rcx
	movss	%xmm13, 48(%rsp)
	movl	$4, %r8d
	movl	$1, %edx
	movss	%xmm9, 40(%rsp)
	movss	%xmm8, 32(%rsp)
	call	FuzzAddMF
.LVL24:
	.loc 1 72 0
	movss	%xmm6, 56(%rsp)
	xorl	%r9d, %r9d
	movq	%rsi, %rcx
	movss	%xmm12, 48(%rsp)
	movl	$5, %r8d
	movl	$1, %edx
	movss	%xmm7, 40(%rsp)
	movss	%xmm11, 32(%rsp)
	call	FuzzAddMF
.LVL25:
	.loc 1 75 0
	movq	.refptr.FuzzMax(%rip), %rax
	movq	%rbx, 72(%rsp)
	leaq	flexnav(%rip), %rbx
	leaq	FuzzMin(%rip), %r9
	xorl	%edx, %edx
	movl	$100, %r8d
	movq	%rbx, %rcx
	movl	$6, 96(%rsp)
	movq	%rsi, 88(%rsp)
	movq	%rax, 32(%rsp)
	movl	$12, 80(%rsp)
	movl	$2, 64(%rsp)
	movq	%rbp, 56(%rsp)
	movl	$4, 48(%rsp)
	movq	%rdi, 40(%rsp)
	call	FuzzFisSetup
.LVL26:
	.loc 1 83 0
	movq	%rbx, %rcx
	.loc 1 78 0
	movl	$0x3ea9fbe7, 8+flexnav_inputs(%rip)
	.loc 1 79 0
	movl	$0x3fc3d70a, 20+flexnav_inputs(%rip)
	.loc 1 80 0
	movl	$0x40600000, 32+flexnav_inputs(%rip)
	.loc 1 81 0
	movl	$0x40cb851f, 44+flexnav_inputs(%rip)
	.loc 1 83 0
	call	FuzzFuzz
.LVL27:
	.loc 1 84 0
	leaq	flexnav_Rules(%rip), %rdx
	movl	$15, %r8d
	movq	%rbx, %rcx
	call	FuzzyIS
.LVL28:
	.loc 1 87 0
	movq	%rbx, %rcx
	call	FuzzDeFuzz
.LVL29:
	.loc 1 90 0
	pxor	%xmm1, %xmm1
	leaq	.LC33(%rip), %rcx
	pxor	%xmm0, %xmm0
	cvtss2sd	20+flexnav_outputs(%rip), %xmm1
	cvtss2sd	8+flexnav_outputs(%rip), %xmm0
	movapd	%xmm1, %xmm2
	movq	%xmm1, %r8
	movq	%xmm0, %rdx
	movapd	%xmm0, %xmm1
	call	printf
	nop
.LVL30:
	.loc 1 93 0
	movaps	112(%rsp), %xmm6
	xorl	%eax, %eax
	movaps	128(%rsp), %xmm7
	movaps	144(%rsp), %xmm8
	movaps	160(%rsp), %xmm9
	movaps	176(%rsp), %xmm10
	movaps	192(%rsp), %xmm11
	movaps	208(%rsp), %xmm12
	movaps	224(%rsp), %xmm13
	movaps	240(%rsp), %xmm14
	movaps	256(%rsp), %xmm15
	addq	$280, %rsp
	.cfi_restore 32
	.cfi_restore 31
	.cfi_restore 30
	.cfi_restore 29
	.cfi_restore 28
	.cfi_restore 27
	.cfi_restore 26
	.cfi_restore 25
	.cfi_restore 24
	.cfi_restore 23
	.cfi_def_cfa_offset 40
	popq	%rbx
	.cfi_restore 3
	.cfi_def_cfa_offset 32
	popq	%rsi
	.cfi_restore 4
	.cfi_def_cfa_offset 24
	popq	%rdi
	.cfi_restore 5
	.cfi_def_cfa_offset 16
	popq	%rbp
	.cfi_restore 6
	.cfi_def_cfa_offset 8
	ret
	.cfi_endproc
.LFE7:
	.seh_endproc
	.section	.text.unlikely,"x"
.LCOLDE34:
	.section	.text.startup,"x"
.LHOTE34:
	.globl	flexnav_Rules
	.data
	.align 64
flexnav_Rules:
	.word	0
	.word	-1
	.word	-32764
	.word	0
	.word	1
	.word	-32766
	.word	1
	.word	4
	.space 18
	.word	1
	.word	6
	.word	-32764
	.word	1
	.word	4
	.space 24
	.word	2
	.word	9
	.word	-32764
	.word	1
	.word	4
	.space 24
	.word	3
	.word	12
	.word	-32764
	.word	0
	.word	1
	.word	-32766
	.word	1
	.word	4
	.space 18
	.word	0
	.word	1
	.word	-32766
	.word	1
	.word	4
	.word	-32766
	.word	3
	.word	10
	.word	-32764
	.word	0
	.word	3
	.space 12
	.word	0
	.word	1
	.word	-32766
	.word	2
	.word	7
	.word	-32766
	.word	3
	.word	10
	.word	-32764
	.word	1
	.word	6
	.space 12
	.word	0
	.word	1
	.word	-32766
	.word	1
	.word	4
	.word	-32766
	.word	3
	.word	11
	.word	-32764
	.word	0
	.word	2
	.space 12
	.word	0
	.word	1
	.word	-32766
	.word	2
	.word	7
	.word	-32766
	.word	3
	.word	11
	.word	-32764
	.word	1
	.word	5
	.space 12
	.word	0
	.word	1
	.word	-32766
	.word	1
	.word	5
	.word	-32766
	.word	3
	.word	10
	.word	-32764
	.word	0
	.word	2
	.space 12
	.word	0
	.word	1
	.word	-32766
	.word	2
	.word	8
	.word	-32766
	.word	3
	.word	10
	.word	-32764
	.word	1
	.word	5
	.space 12
	.word	0
	.word	2
	.word	-32766
	.word	1
	.word	4
	.word	-32766
	.word	3
	.word	10
	.word	-32764
	.word	0
	.word	2
	.space 12
	.word	0
	.word	2
	.word	-32766
	.word	2
	.word	7
	.word	-32766
	.word	3
	.word	10
	.word	-32764
	.word	1
	.word	5
	.space 12
	.word	0
	.word	2
	.word	-32766
	.word	1
	.word	-4
	.word	-32764
	.word	0
	.word	1
	.space 18
	.word	0
	.word	2
	.word	-32766
	.word	2
	.word	-7
	.word	-32764
	.word	1
	.word	4
	.space 18
	.word	0
	.word	2
	.word	-32766
	.word	3
	.word	-10
	.word	-32764
	.word	0
	.word	1
	.word	-32766
	.word	1
	.word	4
	.space 12
	.comm	MFout, 240, 6
	.comm	MFin, 480, 6
	.comm	flexnav_outputs, 24, 4
	.comm	flexnav_inputs, 48, 5
	.comm	flexnav, 61, 5
	.section .rdata,"dr"
	.align 4
.LC0:
	.long	1056964608
	.align 4
.LC2:
	.long	1084227584
	.align 4
.LC3:
	.long	1101004800
	.align 4
.LC4:
	.long	1065353216
	.align 4
.LC5:
	.long	1045220557
	.align 4
.LC7:
	.long	1053609165
	.align 4
.LC12:
	.long	1073741824
	.align 4
.LC14:
	.long	1082130432
	.align 4
.LC15:
	.long	1075838976
	.align 4
.LC16:
	.long	1088421888
	.align 4
.LC25:
	.long	3201092813
	.align 4
.LC26:
	.long	1061997773
	.align 4
.LC27:
	.long	1068708659
	.align 4
.LC28:
	.long	1058642330
	.text
.Letext0:
	.section	.text.unlikely,"x"
.Letext_cold0:
	.file 2 "fuzzfis.h"
	.file 3 "/usr/include/stdio.h"
	.section	.rdata$.refptr.FuzzMin, "dr"
	.globl	.refptr.FuzzMin
	.linkonce	discard
.refptr.FuzzMin:
	.quad	FuzzMin
	.section	.rdata$.refptr.FuzzMax, "dr"
	.globl	.refptr.FuzzMax
	.linkonce	discard
.refptr.FuzzMax:
	.quad	FuzzMax
